target datalayout = "e-m:e-p270:32:32-p271:32:32-p272:64:64-i64:64-i128:128-f80:128-n8:16:32:64-S128"
target triple = "x86_64-unknown-linux-gnu"

%class.btVector3 = type { [4 x float] }
%struct.btDbvt = type { ptr, ptr, i32, i32, i32, [4 x i8], %class.btAlignedObjectArray }
%class.btAlignedObjectArray = type <{ %class.btAlignedAllocator, [3 x i8], i32, i32, [4 x i8], ptr, i8, [7 x i8] }>
%class.btAlignedAllocator = type { i8 }
%struct.btDbvtNode = type { %struct.btDbvtAabbMm, ptr, %union.anon.4 }
%struct.btDbvtAabbMm = type { %class.btVector3, %class.btVector3 }
%union.anon.4 = type { [2 x ptr] }

; Function Attrs: mustprogress nounwind uwtable
define linkonce_odr dso_local void @_Z6btSwapI12btDbvtAabbMmEvRT_S2_(ptr noundef nonnull align 4 dereferenceable(32) %a, ptr noundef nonnull align 4 dereferenceable(32) %b) #1 comdat {
entry:
  %a.addr = alloca ptr, align 8
  %b.addr = alloca ptr, align 8
  %tmp = alloca %struct.btDbvtAabbMm, align 4
  store ptr %a, ptr %a.addr, align 8
  store ptr %b, ptr %b.addr, align 8
  %0 = load ptr, ptr %a.addr, align 8
  call void @llvm.memcpy.p0.p0.i64(ptr align 4 %tmp, ptr align 4 %0, i64 32, i1 false)
  %1 = load ptr, ptr %b.addr, align 8
  %2 = load ptr, ptr %a.addr, align 8
  call void @llvm.memcpy.p0.p0.i64(ptr align 4 %2, ptr align 4 %1, i64 32, i1 false)
  %3 = load ptr, ptr %b.addr, align 8
  call void @llvm.memcpy.p0.p0.i64(ptr align 4 %3, ptr align 4 %tmp, i64 32, i1 false)
  ret void
}

; Function Attrs: mustprogress nounwind uwtable
define internal noundef i32 @_ZL7indexofPK10btDbvtNode(ptr noundef %node) #1 {
entry:
  %node.addr = alloca ptr, align 8
  store ptr %node, ptr %node.addr, align 8
  %0 = load ptr, ptr %node.addr, align 8
  %parent = getelementptr inbounds %struct.btDbvtNode, ptr %0, i32 0, i32 1
  %1 = load ptr, ptr %parent, align 8
  %2 = getelementptr inbounds %struct.btDbvtNode, ptr %1, i32 0, i32 2
  %arrayidx = getelementptr inbounds [2 x ptr], ptr %2, i64 0, i64 1
  %3 = load ptr, ptr %arrayidx, align 8
  %4 = load ptr, ptr %node.addr, align 8
  %cmp = icmp eq ptr %3, %4
  %conv = zext i1 %cmp to i32
  ret i32 %conv
}

; Function Attrs: mustprogress nounwind uwtable
define linkonce_odr dso_local noundef zeroext i1 @_ZNK10btDbvtNode6isleafEv(ptr noundef nonnull align 8 dereferenceable(56) %this) #1 comdat align 2 {
entry:
  %this.addr = alloca ptr, align 8
  store ptr %this, ptr %this.addr, align 8
  %this1 = load ptr, ptr %this.addr, align 8
  %0 = getelementptr inbounds %struct.btDbvtNode, ptr %this1, i32 0, i32 2
  %arrayidx = getelementptr inbounds [2 x ptr], ptr %0, i64 0, i64 1
  %1 = load ptr, ptr %arrayidx, align 8
  %cmp = icmp eq ptr %1, null
  ret i1 %cmp
}

; Function Attrs: mustprogress uwtable
define dso_local void @_ZN6btDbvt6updateEP10btDbvtNodei(ptr noundef nonnull align 8 dereferenceable(64) %this, ptr noundef %leaf, i32 noundef %lookahead) #2 align 2 {
entry:
  %this.addr = alloca ptr, align 8
  %leaf.addr = alloca ptr, align 8
  %lookahead.addr = alloca i32, align 4
  %root = alloca ptr, align 8
  %i = alloca i32, align 4
  store ptr %this, ptr %this.addr, align 8
  store ptr %leaf, ptr %leaf.addr, align 8
  store i32 %lookahead, ptr %lookahead.addr, align 4
  %this1 = load ptr, ptr %this.addr, align 8
  %0 = load ptr, ptr %leaf.addr, align 8
  %call = call noundef ptr @_ZL10removeleafP6btDbvtP10btDbvtNode(ptr noundef %this1, ptr noundef %0)
  store ptr %call, ptr %root, align 8
  %1 = load ptr, ptr %root, align 8
  %tobool = icmp ne ptr %1, null
  br i1 %tobool, label %if.then, label %if.end6

if.then:                                          ; preds = %entry
  %2 = load i32, ptr %lookahead.addr, align 4
  %cmp = icmp sge i32 %2, 0
  br i1 %cmp, label %if.then2, label %if.else

if.then2:                                         ; preds = %if.then
  store i32 0, ptr %i, align 4
  br label %for.cond

for.cond:                                         ; preds = %for.inc, %if.then2
  %3 = load i32, ptr %i, align 4
  %4 = load i32, ptr %lookahead.addr, align 4
  %cmp3 = icmp slt i32 %3, %4
  br i1 %cmp3, label %land.rhs, label %land.end

land.rhs:                                         ; preds = %for.cond
  %5 = load ptr, ptr %root, align 8
  %parent = getelementptr inbounds %struct.btDbvtNode, ptr %5, i32 0, i32 1
  %6 = load ptr, ptr %parent, align 8
  %tobool4 = icmp ne ptr %6, null
  br label %land.end

land.end:                                         ; preds = %land.rhs, %for.cond
  %7 = phi i1 [ false, %for.cond ], [ %tobool4, %land.rhs ]
  br i1 %7, label %for.body, label %for.end

for.body:                                         ; preds = %land.end
  %8 = load ptr, ptr %root, align 8
  %parent5 = getelementptr inbounds %struct.btDbvtNode, ptr %8, i32 0, i32 1
  %9 = load ptr, ptr %parent5, align 8
  store ptr %9, ptr %root, align 8
  br label %for.inc

for.inc:                                          ; preds = %for.body
  %10 = load i32, ptr %i, align 4
  %inc = add nsw i32 %10, 1
  store i32 %inc, ptr %i, align 4
  br label %for.cond, !llvm.loop !15

for.end:                                          ; preds = %land.end
  br label %if.end

if.else:                                          ; preds = %if.then
  %m_root = getelementptr inbounds %struct.btDbvt, ptr %this1, i32 0, i32 0
  %11 = load ptr, ptr %m_root, align 8
  store ptr %11, ptr %root, align 8
  br label %if.end

if.end:                                           ; preds = %if.else, %for.end
  br label %if.end6

if.end6:                                          ; preds = %if.end, %entry
  %12 = load ptr, ptr %root, align 8
  %13 = load ptr, ptr %leaf.addr, align 8
  call void @_ZL10insertleafP6btDbvtP10btDbvtNodeS2_(ptr noundef %this1, ptr noundef %12, ptr noundef %13)
  ret void
}

; Function Attrs: mustprogress uwtable
define internal noundef ptr @_ZL4sortP10btDbvtNodeRS0_(ptr noundef %n, ptr noundef nonnull align 8 dereferenceable(8) %r) #2 {
entry:
  %retval = alloca ptr, align 8
  %n.addr = alloca ptr, align 8
  %r.addr = alloca ptr, align 8
  %p = alloca ptr, align 8
  %i = alloca i32, align 4
  %j = alloca i32, align 4
  %s = alloca ptr, align 8
  %q = alloca ptr, align 8
  store ptr %n, ptr %n.addr, align 8
  store ptr %r, ptr %r.addr, align 8
  %0 = load ptr, ptr %n.addr, align 8
  %parent = getelementptr inbounds %struct.btDbvtNode, ptr %0, i32 0, i32 1
  %1 = load ptr, ptr %parent, align 8
  store ptr %1, ptr %p, align 8
  %2 = load ptr, ptr %p, align 8
  %3 = load ptr, ptr %n.addr, align 8
  %cmp = icmp ugt ptr %2, %3
  br i1 %cmp, label %if.then, label %if.end22

if.then:                                          ; preds = %entry
  %4 = load ptr, ptr %n.addr, align 8
  %call = call noundef i32 @_ZL7indexofPK10btDbvtNode(ptr noundef %4)
  store i32 %call, ptr %i, align 4
  %5 = load i32, ptr %i, align 4
  %sub = sub nsw i32 1, %5
  store i32 %sub, ptr %j, align 4
  %6 = load ptr, ptr %p, align 8
  %7 = getelementptr inbounds %struct.btDbvtNode, ptr %6, i32 0, i32 2
  %8 = load i32, ptr %j, align 4
  %idxprom = sext i32 %8 to i64
  %arrayidx = getelementptr inbounds [2 x ptr], ptr %7, i64 0, i64 %idxprom
  %9 = load ptr, ptr %arrayidx, align 8
  store ptr %9, ptr %s, align 8
  %10 = load ptr, ptr %p, align 8
  %parent1 = getelementptr inbounds %struct.btDbvtNode, ptr %10, i32 0, i32 1
  %11 = load ptr, ptr %parent1, align 8
  store ptr %11, ptr %q, align 8
  %12 = load ptr, ptr %q, align 8
  %tobool = icmp ne ptr %12, null
  br i1 %tobool, label %if.then2, label %if.else

if.then2:                                         ; preds = %if.then
  %13 = load ptr, ptr %n.addr, align 8
  %14 = load ptr, ptr %q, align 8
  %15 = getelementptr inbounds %struct.btDbvtNode, ptr %14, i32 0, i32 2
  %16 = load ptr, ptr %p, align 8
  %call3 = call noundef i32 @_ZL7indexofPK10btDbvtNode(ptr noundef %16)
  %idxprom4 = sext i32 %call3 to i64
  %arrayidx5 = getelementptr inbounds [2 x ptr], ptr %15, i64 0, i64 %idxprom4
  store ptr %13, ptr %arrayidx5, align 8
  br label %if.end

if.else:                                          ; preds = %if.then
  %17 = load ptr, ptr %n.addr, align 8
  %18 = load ptr, ptr %r.addr, align 8
  store ptr %17, ptr %18, align 8
  br label %if.end

if.end:                                           ; preds = %if.else, %if.then2
  %19 = load ptr, ptr %n.addr, align 8
  %20 = load ptr, ptr %s, align 8
  %parent6 = getelementptr inbounds %struct.btDbvtNode, ptr %20, i32 0, i32 1
  store ptr %19, ptr %parent6, align 8
  %21 = load ptr, ptr %n.addr, align 8
  %22 = load ptr, ptr %p, align 8
  %parent7 = getelementptr inbounds %struct.btDbvtNode, ptr %22, i32 0, i32 1
  store ptr %21, ptr %parent7, align 8
  %23 = load ptr, ptr %q, align 8
  %24 = load ptr, ptr %n.addr, align 8
  %parent8 = getelementptr inbounds %struct.btDbvtNode, ptr %24, i32 0, i32 1
  store ptr %23, ptr %parent8, align 8
  %25 = load ptr, ptr %n.addr, align 8
  %26 = getelementptr inbounds %struct.btDbvtNode, ptr %25, i32 0, i32 2
  %arrayidx9 = getelementptr inbounds [2 x ptr], ptr %26, i64 0, i64 0
  %27 = load ptr, ptr %arrayidx9, align 8
  %28 = load ptr, ptr %p, align 8
  %29 = getelementptr inbounds %struct.btDbvtNode, ptr %28, i32 0, i32 2
  %arrayidx10 = getelementptr inbounds [2 x ptr], ptr %29, i64 0, i64 0
  store ptr %27, ptr %arrayidx10, align 8
  %30 = load ptr, ptr %n.addr, align 8
  %31 = getelementptr inbounds %struct.btDbvtNode, ptr %30, i32 0, i32 2
  %arrayidx11 = getelementptr inbounds [2 x ptr], ptr %31, i64 0, i64 1
  %32 = load ptr, ptr %arrayidx11, align 8
  %33 = load ptr, ptr %p, align 8
  %34 = getelementptr inbounds %struct.btDbvtNode, ptr %33, i32 0, i32 2
  %arrayidx12 = getelementptr inbounds [2 x ptr], ptr %34, i64 0, i64 1
  store ptr %32, ptr %arrayidx12, align 8
  %35 = load ptr, ptr %p, align 8
  %36 = load ptr, ptr %n.addr, align 8
  %37 = getelementptr inbounds %struct.btDbvtNode, ptr %36, i32 0, i32 2
  %arrayidx13 = getelementptr inbounds [2 x ptr], ptr %37, i64 0, i64 0
  %38 = load ptr, ptr %arrayidx13, align 8
  %parent14 = getelementptr inbounds %struct.btDbvtNode, ptr %38, i32 0, i32 1
  store ptr %35, ptr %parent14, align 8
  %39 = load ptr, ptr %p, align 8
  %40 = load ptr, ptr %n.addr, align 8
  %41 = getelementptr inbounds %struct.btDbvtNode, ptr %40, i32 0, i32 2
  %arrayidx15 = getelementptr inbounds [2 x ptr], ptr %41, i64 0, i64 1
  %42 = load ptr, ptr %arrayidx15, align 8
  %parent16 = getelementptr inbounds %struct.btDbvtNode, ptr %42, i32 0, i32 1
  store ptr %39, ptr %parent16, align 8
  %43 = load ptr, ptr %p, align 8
  %44 = load ptr, ptr %n.addr, align 8
  %45 = getelementptr inbounds %struct.btDbvtNode, ptr %44, i32 0, i32 2
  %46 = load i32, ptr %i, align 4
  %idxprom17 = sext i32 %46 to i64
  %arrayidx18 = getelementptr inbounds [2 x ptr], ptr %45, i64 0, i64 %idxprom17
  store ptr %43, ptr %arrayidx18, align 8
  %47 = load ptr, ptr %s, align 8
  %48 = load ptr, ptr %n.addr, align 8
  %49 = getelementptr inbounds %struct.btDbvtNode, ptr %48, i32 0, i32 2
  %50 = load i32, ptr %j, align 4
  %idxprom19 = sext i32 %50 to i64
  %arrayidx20 = getelementptr inbounds [2 x ptr], ptr %49, i64 0, i64 %idxprom19
  store ptr %47, ptr %arrayidx20, align 8
  %51 = load ptr, ptr %p, align 8
  %volume = getelementptr inbounds %struct.btDbvtNode, ptr %51, i32 0, i32 0
  %52 = load ptr, ptr %n.addr, align 8
  %volume21 = getelementptr inbounds %struct.btDbvtNode, ptr %52, i32 0, i32 0
  call void @_Z6btSwapI12btDbvtAabbMmEvRT_S2_(ptr noundef nonnull align 4 dereferenceable(32) %volume, ptr noundef nonnull align 4 dereferenceable(32) %volume21)
  %53 = load ptr, ptr %p, align 8
  store ptr %53, ptr %retval, align 8
  br label %return

if.end22:                                         ; preds = %entry
  %54 = load ptr, ptr %n.addr, align 8
  store ptr %54, ptr %retval, align 8
  br label %return

return:                                           ; preds = %if.end22, %if.end
  %55 = load ptr, ptr %retval, align 8
  ret ptr %55
}

; Function Attrs: mustprogress nounwind uwtable
define linkonce_odr dso_local noundef zeroext i1 @_ZNK10btDbvtNode10isinternalEv(ptr noundef nonnull align 8 dereferenceable(56) %this) #1 comdat align 2 {
entry:
  %this.addr = alloca ptr, align 8
  store ptr %this, ptr %this.addr, align 8
  %this1 = load ptr, ptr %this.addr, align 8
  %call = call noundef zeroext i1 @_ZNK10btDbvtNode6isleafEv(ptr noundef nonnull align 8 dereferenceable(56) %this1)
  %lnot = xor i1 %call, true
  ret i1 %lnot
}

; Function Attrs: mustprogress uwtable
define dso_local void @_ZN6btDbvt19optimizeIncrementalEi(ptr noundef nonnull align 8 dereferenceable(64) %this, i32 noundef %passes) #2 align 2 {
entry:
  %this.addr = alloca ptr, align 8
  %passes.addr = alloca i32, align 4
  %node = alloca ptr, align 8
  %bit = alloca i32, align 4
  store ptr %this, ptr %this.addr, align 8
  store i32 %passes, ptr %passes.addr, align 4
  %this1 = load ptr, ptr %this.addr, align 8
  %0 = load i32, ptr %passes.addr, align 4
  %cmp = icmp slt i32 %0, 0
  br i1 %cmp, label %if.then, label %if.end

if.then:                                          ; preds = %entry
  %m_leaves = getelementptr inbounds %struct.btDbvt, ptr %this1, i32 0, i32 3
  %1 = load i32, ptr %m_leaves, align 4
  store i32 %1, ptr %passes.addr, align 4
  br label %if.end

if.end:                                           ; preds = %if.then, %entry
  %m_root = getelementptr inbounds %struct.btDbvt, ptr %this1, i32 0, i32 0
  %2 = load ptr, ptr %m_root, align 8
  %tobool = icmp ne ptr %2, null
  br i1 %tobool, label %land.lhs.true, label %if.end11

land.lhs.true:                                    ; preds = %if.end
  %3 = load i32, ptr %passes.addr, align 4
  %cmp2 = icmp sgt i32 %3, 0
  br i1 %cmp2, label %if.then3, label %if.end11

if.then3:                                         ; preds = %land.lhs.true
  br label %do.body

do.body:                                          ; preds = %do.cond, %if.then3
  %m_root4 = getelementptr inbounds %struct.btDbvt, ptr %this1, i32 0, i32 0
  %4 = load ptr, ptr %m_root4, align 8
  store ptr %4, ptr %node, align 8
  store i32 0, ptr %bit, align 4
  br label %while.cond

while.cond:                                       ; preds = %while.body, %do.body
  %5 = load ptr, ptr %node, align 8
  %call = call noundef zeroext i1 @_ZNK10btDbvtNode10isinternalEv(ptr noundef nonnull align 8 dereferenceable(56) %5)
  br i1 %call, label %while.body, label %while.end

while.body:                                       ; preds = %while.cond
  %6 = load ptr, ptr %node, align 8
  %m_root5 = getelementptr inbounds %struct.btDbvt, ptr %this1, i32 0, i32 0
  %call6 = call noundef ptr @_ZL4sortP10btDbvtNodeRS0_(ptr noundef %6, ptr noundef nonnull align 8 dereferenceable(8) %m_root5)
  %7 = getelementptr inbounds %struct.btDbvtNode, ptr %call6, i32 0, i32 2
  %m_opath = getelementptr inbounds %struct.btDbvt, ptr %this1, i32 0, i32 4
  %8 = load i32, ptr %m_opath, align 8
  %9 = load i32, ptr %bit, align 4
  %shr = lshr i32 %8, %9
  %and = and i32 %shr, 1
  %idxprom = zext i32 %and to i64
  %arrayidx = getelementptr inbounds [2 x ptr], ptr %7, i64 0, i64 %idxprom
  %10 = load ptr, ptr %arrayidx, align 8
  store ptr %10, ptr %node, align 8
  %11 = load i32, ptr %bit, align 4
  %add = add i32 %11, 1
  %conv = zext i32 %add to i64
  %and7 = and i64 %conv, 31
  %conv8 = trunc i64 %and7 to i32
  store i32 %conv8, ptr %bit, align 4
  br label %while.cond, !llvm.loop !13

while.end:                                        ; preds = %while.cond
  %12 = load ptr, ptr %node, align 8
  call void @_ZN6btDbvt6updateEP10btDbvtNodei(ptr noundef nonnull align 8 dereferenceable(64) %this1, ptr noundef %12, i32 noundef -1)
  %m_opath9 = getelementptr inbounds %struct.btDbvt, ptr %this1, i32 0, i32 4
  %13 = load i32, ptr %m_opath9, align 8
  %inc = add i32 %13, 1
  store i32 %inc, ptr %m_opath9, align 8
  br label %do.cond

do.cond:                                          ; preds = %while.end
  %14 = load i32, ptr %passes.addr, align 4
  %dec = add nsw i32 %14, -1
  store i32 %dec, ptr %passes.addr, align 4
  %tobool10 = icmp ne i32 %dec, 0
  br i1 %tobool10, label %do.body, label %do.end, !llvm.loop !14

do.end:                                           ; preds = %do.cond
  br label %if.end11

if.end11:                                         ; preds = %do.end, %land.lhs.true, %if.end
  ret void
}