; Function Attrs: mustprogress uwtable
define dso_local void @_ZN6btDbvt19optimizeIncrementalEi(ptr nocapture noundef nonnull align 8 dereferenceable(64) %this, i32 noundef %passes) local_unnamed_addr #2 align 2 {
entry:
  %tmp.i.i = alloca %struct.btDbvtAabbMm, align 4
  %cmp = icmp slt i32 %passes, 0
  %m_leaves = getelementptr inbounds i8, ptr %this, i64 20
  %0 = load i32, ptr %m_leaves, align 4
  %passes.addr.0 = select i1 %cmp, i32 %0, i32 %passes
  %1 = load ptr, ptr %this, align 8
  %tobool = icmp ne ptr %1, null
  %cmp2 = icmp sgt i32 %passes.addr.0, 0
  %or.cond = select i1 %tobool, i1 %cmp2, i1 false
  br i1 %or.cond, label %do.body.preheader, label %if.end11

do.body.preheader:                                ; preds = %entry
  %m_opath = getelementptr inbounds i8, ptr %this, i64 24
  br label %do.body

do.body:                                          ; preds = %do.body.preheader, %while.end
  %passes.addr.1 = phi i32 [ %dec, %while.end ], [ %passes.addr.0, %do.body.preheader ]
  %node.010 = load ptr, ptr %this, align 8
  %arrayidx.i.i11 = getelementptr inbounds i8, ptr %node.010, i64 48
  %2 = load ptr, ptr %arrayidx.i.i11, align 8
  %cmp.i.i.not12 = icmp eq ptr %2, null
  br i1 %cmp.i.i.not12, label %while.end, label %while.body

while.body:                                       ; preds = %do.body, %_ZL4sortP10btDbvtNodeRS0_.exit
  %arrayidx.i.i15 = phi ptr [ %arrayidx.i.i, %_ZL4sortP10btDbvtNodeRS0_.exit ], [ %arrayidx.i.i11, %do.body ]
  %node.014 = phi ptr [ %node.0, %_ZL4sortP10btDbvtNodeRS0_.exit ], [ %node.010, %do.body ]
  %bit.013 = phi i32 [ %18, %_ZL4sortP10btDbvtNodeRS0_.exit ], [ 0, %do.body ]
  %parent.i = getelementptr inbounds i8, ptr %node.014, i64 32
  %3 = load ptr, ptr %parent.i, align 8
  %cmp.i = icmp ugt ptr %3, %node.014
  br i1 %cmp.i, label %if.then.i, label %_ZL4sortP10btDbvtNodeRS0_.exit

if.then.i:                                        ; preds = %while.body
  %arrayidx.i.i6 = getelementptr inbounds i8, ptr %3, i64 48
  %4 = load ptr, ptr %arrayidx.i.i6, align 8
  %cmp.i.i7 = icmp eq ptr %4, %node.014
  %5 = xor i1 %cmp.i.i7, true
  %6 = getelementptr inbounds i8, ptr %3, i64 40
  %idxprom.i = zext i1 %5 to i64
  %arrayidx.i = getelementptr inbounds [2 x ptr], ptr %6, i64 0, i64 %idxprom.i
  %7 = load ptr, ptr %arrayidx.i, align 8
  %parent1.i = getelementptr inbounds i8, ptr %3, i64 32
  %8 = load ptr, ptr %parent1.i, align 8
  %tobool.not.i = icmp eq ptr %8, null
  br i1 %tobool.not.i, label %if.end.i, label %if.then2.i

if.then2.i:                                       ; preds = %if.then.i
  %9 = getelementptr inbounds i8, ptr %8, i64 40
  %arrayidx.i34.i = getelementptr inbounds i8, ptr %8, i64 48
  %10 = load ptr, ptr %arrayidx.i34.i, align 8
  %cmp.i35.i = icmp eq ptr %10, %3
  %idxprom4.i = zext i1 %cmp.i35.i to i64
  %arrayidx5.i = getelementptr inbounds [2 x ptr], ptr %9, i64 0, i64 %idxprom4.i
  br label %if.end.i

if.end.i:                                         ; preds = %if.then2.i, %if.then.i
  %r.sink.i = phi ptr [ %arrayidx5.i, %if.then2.i ], [ %this, %if.then.i ]
  store ptr %node.014, ptr %r.sink.i, align 8
  %parent6.i = getelementptr inbounds i8, ptr %7, i64 32
  store ptr %node.014, ptr %parent6.i, align 8
  store ptr %node.014, ptr %parent1.i, align 8
  store ptr %8, ptr %parent.i, align 8
  %11 = getelementptr inbounds i8, ptr %node.014, i64 40
  %12 = load ptr, ptr %11, align 8
  store ptr %12, ptr %6, align 8
  %13 = load ptr, ptr %arrayidx.i.i15, align 8
  store ptr %13, ptr %arrayidx.i.i6, align 8
  %14 = load ptr, ptr %11, align 8
  %parent14.i = getelementptr inbounds i8, ptr %14, i64 32
  store ptr %3, ptr %parent14.i, align 8
  %15 = load ptr, ptr %arrayidx.i.i15, align 8
  %parent16.i = getelementptr inbounds i8, ptr %15, i64 32
  store ptr %3, ptr %parent16.i, align 8
  %idxprom17.i = zext i1 %cmp.i.i7 to i64
  %arrayidx18.i = getelementptr inbounds [2 x ptr], ptr %11, i64 0, i64 %idxprom17.i
  store ptr %3, ptr %arrayidx18.i, align 8
  %arrayidx20.i = getelementptr inbounds [2 x ptr], ptr %11, i64 0, i64 %idxprom.i
  store ptr %7, ptr %arrayidx20.i, align 8
  call void @llvm.lifetime.start.p0(i64 32, ptr nonnull %tmp.i.i)
  call void @llvm.memcpy.p0.p0.i64(ptr noundef nonnull align 4 dereferenceable(32) %tmp.i.i, ptr noundef nonnull align 4 dereferenceable(32) %3, i64 32, i1 false)
  tail call void @llvm.memcpy.p0.p0.i64(ptr noundef nonnull align 4 dereferenceable(32) %3, ptr noundef nonnull align 4 dereferenceable(32) %node.014, i64 32, i1 false)
  call void @llvm.memcpy.p0.p0.i64(ptr noundef nonnull align 4 dereferenceable(32) %node.014, ptr noundef nonnull align 4 dereferenceable(32) %tmp.i.i, i64 32, i1 false)
  call void @llvm.lifetime.end.p0(i64 32, ptr nonnull %tmp.i.i)
  br label %_ZL4sortP10btDbvtNodeRS0_.exit

_ZL4sortP10btDbvtNodeRS0_.exit:                   ; preds = %while.body, %if.end.i
  %retval.0.i = phi ptr [ %3, %if.end.i ], [ %node.014, %while.body ]
  %16 = getelementptr inbounds i8, ptr %retval.0.i, i64 40
  %17 = load i32, ptr %m_opath, align 8
  %shr = lshr i32 %17, %bit.013
  %and = and i32 %shr, 1
  %idxprom = zext nneg i32 %and to i64
  %arrayidx = getelementptr inbounds [2 x ptr], ptr %16, i64 0, i64 %idxprom
  %add = add nuw nsw i32 %bit.013, 1
  %18 = and i32 %add, 31
  %node.0 = load ptr, ptr %arrayidx, align 8
  %arrayidx.i.i = getelementptr inbounds i8, ptr %node.0, i64 48
  %19 = load ptr, ptr %arrayidx.i.i, align 8
  %cmp.i.i.not = icmp eq ptr %19, null
  br i1 %cmp.i.i.not, label %while.end, label %while.body, !llvm.loop !25

while.end:                                        ; preds = %_ZL4sortP10btDbvtNodeRS0_.exit, %do.body
  %node.0.lcssa = phi ptr [ %node.010, %do.body ], [ %node.0, %_ZL4sortP10btDbvtNodeRS0_.exit ]
  %call.i = tail call fastcc noundef ptr @_ZL10removeleafP6btDbvtP10btDbvtNode(ptr noundef nonnull %this, ptr noundef nonnull %node.0.lcssa)
  %tobool.not.i8 = icmp eq ptr %call.i, null
  %20 = load ptr, ptr %this, align 8
  %spec.select = select i1 %tobool.not.i8, ptr null, ptr %20
  tail call fastcc void @_ZL10insertleafP6btDbvtP10btDbvtNodeS2_(ptr noundef nonnull %this, ptr noundef %spec.select, ptr noundef nonnull %node.0.lcssa)
  %21 = load i32, ptr %m_opath, align 8
  %inc = add i32 %21, 1
  store i32 %inc, ptr %m_opath, align 8
  %dec = add nsw i32 %passes.addr.1, -1
  %tobool10.not = icmp eq i32 %dec, 0
  br i1 %tobool10.not, label %if.end11, label %do.body, !llvm.loop !26

if.end11:                                         ; preds = %while.end, %entry
  ret void
}